; Function Attrs: nounwind uwtable
define dso_local noundef i32 @Curl_cpool_upkeep(ptr noundef %0) local_unnamed_addr #0 {
  %2 = alloca %struct.Curl_hash_iterator, align 8
  %3 = alloca %struct.curltime, align 8
  %.not.i = icmp eq ptr %0, null
  br i1 %.not.i, label %cpool_get_instance.exit, label %4

4:                                                ; preds = %1
  %5 = getelementptr inbounds nuw i8, ptr %0, i64 224
  %6 = load ptr, ptr %5, align 8, !tbaa !83
  %.not13.i = icmp eq ptr %6, null
  br i1 %.not13.i, label %13, label %7

7:                                                ; preds = %4
  %8 = getelementptr inbounds nuw i8, ptr %6, i64 4
  %9 = load i32, ptr %8, align 4, !tbaa !90
  %10 = and i32 %9, 32
  %.not14.i = icmp eq i32 %10, 0
  br i1 %.not14.i, label %13, label %11

11:                                               ; preds = %7
  %12 = getelementptr inbounds nuw i8, ptr %6, i64 40
  br label %cpool_get_instance.exit

13:                                               ; preds = %7, %4
  %14 = getelementptr inbounds nuw i8, ptr %0, i64 216
  %15 = load ptr, ptr %14, align 8, !tbaa !122
  %.not15.i = icmp eq ptr %15, null
  br i1 %.not15.i, label %18, label %16

16:                                               ; preds = %13
  %17 = getelementptr inbounds nuw i8, ptr %15, i64 384
  br label %cpool_get_instance.exit

18:                                               ; preds = %13
  %19 = getelementptr inbounds nuw i8, ptr %0, i64 208
  %20 = load ptr, ptr %19, align 8, !tbaa !21
  %.not16.i = icmp eq ptr %20, null
  %21 = getelementptr inbounds nuw i8, ptr %20, i64 384
  %spec.select = select i1 %.not16.i, ptr null, ptr %21
  br label %cpool_get_instance.exit

cpool_get_instance.exit:                          ; preds = %18, %1, %11, %16
  %.0.i = phi ptr [ %12, %11 ], [ %17, %16 ], [ null, %1 ], [ %spec.select, %18 ]
  call void @llvm.lifetime.start.p0(i64 16, ptr nonnull %3) #7
  %22 = tail call { i64, i32 } @Curl_now() #7
  %23 = extractvalue { i64, i32 } %22, 0
  store i64 %23, ptr %3, align 8
  %24 = getelementptr inbounds nuw i8, ptr %3, i64 8
  %25 = extractvalue { i64, i32 } %22, 1
  store i32 %25, ptr %24, align 8
  %.not = icmp eq ptr %.0.i, null
  br i1 %.not, label %60, label %26

26:                                               ; preds = %cpool_get_instance.exit
  %27 = getelementptr inbounds nuw i8, ptr %.0.i, i64 136
  %28 = load ptr, ptr %27, align 8, !tbaa !82
  %.not16 = icmp eq ptr %28, null
  br i1 %.not16, label %37, label %29

29:                                               ; preds = %26
  %30 = getelementptr inbounds nuw i8, ptr %28, i64 4
  %31 = load i32, ptr %30, align 4, !tbaa !90
  %32 = and i32 %31, 32
  %.not17 = icmp eq i32 %32, 0
  br i1 %.not17, label %37, label %33

33:                                               ; preds = %29
  %34 = getelementptr inbounds nuw i8, ptr %.0.i, i64 120
  %35 = load ptr, ptr %34, align 8, !tbaa !4
  %36 = tail call i32 @Curl_share_lock(ptr noundef %35, i32 noundef 5, i32 noundef 2) #7
  br label %37

37:                                               ; preds = %26, %29, %33
  %38 = getelementptr inbounds nuw i8, ptr %.0.i, i64 152
  %39 = load i8, ptr %38, align 8
  %40 = or i8 %39, 1
  store i8 %40, ptr %38, align 8
  call void @llvm.lifetime.start.p0(i64 24, ptr nonnull %2) #7
  call void @Curl_hash_start_iterate(ptr noundef nonnull %.0.i, ptr noundef nonnull %2) #7
  %41 = call ptr @Curl_hash_next_element(ptr noundef nonnull %2) #7
  %.not24.not.i = icmp eq ptr %41, null
  br i1 %.not24.not.i, label %cpool_foreach.exit, label %.lr.ph.i

.critedge.loopexit.i:                             ; preds = %.lr.ph, %.lr.ph.i
  %.not.not.i = icmp eq ptr %44, null
  br i1 %.not.not.i, label %cpool_foreach.exit, label %.lr.ph.i

.lr.ph.i:                                         ; preds = %37, %.critedge.loopexit.i
  %.01525.i = phi ptr [ %44, %.critedge.loopexit.i ], [ %41, %37 ]
  %42 = getelementptr inbounds nuw i8, ptr %.01525.i, i64 32
  %43 = load ptr, ptr %42, align 8, !tbaa !92
  %44 = call ptr @Curl_hash_next_element(ptr noundef nonnull %2) #7
  %45 = call ptr @Curl_llist_head(ptr noundef %43) #7
  %.not20.i20 = icmp eq ptr %45, null
  br i1 %.not20.i20, label %.critedge.loopexit.i, label %.lr.ph

.lr.ph:                                           ; preds = %.lr.ph.i, %.lr.ph
  %.016.i21 = phi ptr [ %47, %.lr.ph ], [ %45, %.lr.ph.i ]
  %46 = call ptr @Curl_node_elem(ptr noundef nonnull %.016.i21) #7
  %47 = call ptr @Curl_node_next(ptr noundef nonnull %.016.i21) #7
  %48 = call i32 @Curl_conn_upkeep(ptr noundef %0, ptr noundef %46, ptr noundef nonnull %3) #7
  %.not20.i = icmp eq ptr %47, null
  br i1 %.not20.i, label %.critedge.loopexit.i, label %.lr.ph, !llvm.loop !157

cpool_foreach.exit:                               ; preds = %.critedge.loopexit.i, %37
  call void @llvm.lifetime.end.p0(i64 24, ptr nonnull %2) #7
  %49 = load i8, ptr %38, align 8
  %50 = and i8 %49, -2
  store i8 %50, ptr %38, align 8
  %51 = load ptr, ptr %27, align 8, !tbaa !82
  %.not18 = icmp eq ptr %51, null
  br i1 %.not18, label %60, label %52

52:                                               ; preds = %cpool_foreach.exit
  %53 = getelementptr inbounds nuw i8, ptr %51, i64 4
  %54 = load i32, ptr %53, align 4, !tbaa !90
  %55 = and i32 %54, 32
  %.not19 = icmp eq i32 %55, 0
  br i1 %.not19, label %60, label %56

56:                                               ; preds = %52
  %57 = getelementptr inbounds nuw i8, ptr %.0.i, i64 120
  %58 = load ptr, ptr %57, align 8, !tbaa !4
  %59 = call i32 @Curl_share_unlock(ptr noundef %58, i32 noundef 5) #7
  br label %60

60:                                               ; preds = %56, %52, %cpool_foreach.exit, %cpool_get_instance.exit
  call void @llvm.lifetime.end.p0(i64 16, ptr nonnull %3) #7
  ret i32 0
}